; ModuleID = '49/609.cpp'
source_filename = "49/609.cpp"
target datalayout = "e-m:e-p270:32:32-p271:32:32-p272:64:64-i64:64-f80:128-n8:16:32:64-S128"
target triple = "x86_64-pc-linux-gnu"

%"class.std::ios_base::Init" = type { i8 }
%"class.std::basic_istream" = type { i32 (...)**, i64, %"class.std::basic_ios" }
%"class.std::basic_ios" = type { %"class.std::ios_base", %"class.std::basic_ostream"*, i8, i8, %"class.std::basic_streambuf"*, %"class.std::ctype"*, %"class.std::num_put"*, %"class.std::num_get"* }
%"class.std::ios_base" = type { i32 (...)**, i64, i64, i32, i32, i32, %"struct.std::ios_base::_Callback_list"*, %"struct.std::ios_base::_Words", [8 x %"struct.std::ios_base::_Words"], i32, %"struct.std::ios_base::_Words"*, %"class.std::locale" }
%"struct.std::ios_base::_Callback_list" = type { %"struct.std::ios_base::_Callback_list"*, void (i32, %"class.std::ios_base"*, i32)*, i32, i32 }
%"struct.std::ios_base::_Words" = type { i8*, i64 }
%"class.std::locale" = type { %"class.std::locale::_Impl"* }
%"class.std::locale::_Impl" = type { i32, %"class.std::locale::facet"**, i64, %"class.std::locale::facet"**, i8** }
%"class.std::locale::facet" = type <{ i32 (...)**, i32, [4 x i8] }>
%"class.std::basic_ostream" = type { i32 (...)**, %"class.std::basic_ios" }
%"class.std::basic_streambuf" = type { i32 (...)**, i8*, i8*, i8*, i8*, i8*, i8*, %"class.std::locale" }
%"class.std::ctype" = type <{ %"class.std::locale::facet.base", [4 x i8], %struct.__locale_struct*, i8, [7 x i8], i32*, i32*, i16*, i8, [256 x i8], [256 x i8], i8, [6 x i8] }>
%"class.std::locale::facet.base" = type <{ i32 (...)**, i32 }>
%struct.__locale_struct = type { [13 x %struct.__locale_data*], i16*, i32*, i32*, [13 x i8*] }
%struct.__locale_data = type opaque
%"class.std::num_put" = type { %"class.std::locale::facet.base", [4 x i8] }
%"class.std::num_get" = type { %"class.std::locale::facet.base", [4 x i8] }

@_ZStL8__ioinit = internal global %"class.std::ios_base::Init" zeroinitializer, align 1
@__dso_handle = external hidden global i8
@_ZSt3cin = external dso_local global %"class.std::basic_istream", align 8
@_ZSt4cout = external dso_local global %"class.std::basic_ostream", align 8
@llvm.global_ctors = appending global [1 x { i32, void ()*, i8* }] [{ i32, void ()*, i8* } { i32 65535, void ()* @_GLOBAL__sub_I_609.cpp, i8* null }]

; Function Attrs: noinline uwtable
define internal void @__cxx_global_var_init() #0 section ".text.startup" {
  call void @_ZNSt8ios_base4InitC1Ev(%"class.std::ios_base::Init"* @_ZStL8__ioinit)
  %1 = call i32 @__cxa_atexit(void (i8*)* bitcast (void (%"class.std::ios_base::Init"*)* @_ZNSt8ios_base4InitD1Ev to void (i8*)*), i8* getelementptr inbounds (%"class.std::ios_base::Init", %"class.std::ios_base::Init"* @_ZStL8__ioinit, i32 0, i32 0), i8* @__dso_handle) #3
  ret void
}

declare dso_local void @_ZNSt8ios_base4InitC1Ev(%"class.std::ios_base::Init"*) unnamed_addr #1

; Function Attrs: nounwind
declare dso_local void @_ZNSt8ios_base4InitD1Ev(%"class.std::ios_base::Init"*) unnamed_addr #2

; Function Attrs: nounwind
declare dso_local i32 @__cxa_atexit(void (i8*)*, i8*, i8*) #3

; Function Attrs: noinline norecurse uwtable
define dso_local i32 @main() #4 {
  %1 = alloca i32, align 4
  %2 = alloca [500 x i8], align 16
  %3 = alloca i32, align 4
  %4 = alloca i32, align 4
  %5 = alloca i32, align 4
  %6 = alloca i32, align 4
  store i32 0, i32* %1, align 4
  %7 = getelementptr inbounds [500 x i8], [500 x i8]* %2, i64 0, i64 0
  %8 = call dereferenceable(280) %"class.std::basic_istream"* @_ZStrsIcSt11char_traitsIcEERSt13basic_istreamIT_T0_ES6_PS3_(%"class.std::basic_istream"* dereferenceable(280) @_ZSt3cin, i8* %7)
  store i32 2, i32* %5, align 4
  br label %9

9:                                                ; preds = %93, %0
  %10 = load i32, i32* %5, align 4
  %11 = zext i32 %10 to i64
  %12 = getelementptr inbounds [500 x i8], [500 x i8]* %2, i64 0, i64 0
  %13 = call i64 @strlen(i8* %12) #6
  %14 = add i64 %13, 1
  %15 = icmp ult i64 %11, %14
  br i1 %15, label %16, label %96

16:                                               ; preds = %9
  store i32 0, i32* %3, align 4
  br label %17

17:                                               ; preds = %89, %16
  %18 = load i32, i32* %3, align 4
  %19 = zext i32 %18 to i64
  %20 = getelementptr inbounds [500 x i8], [500 x i8]* %2, i64 0, i64 0
  %21 = call i64 @strlen(i8* %20) #6
  %22 = load i32, i32* %5, align 4
  %23 = zext i32 %22 to i64
  %24 = sub i64 %21, %23
  %25 = add i64 %24, 1
  %26 = icmp ult i64 %19, %25
  br i1 %26, label %27, label %92

27:                                               ; preds = %17
  %28 = load i32, i32* %3, align 4
  store i32 %28, i32* %4, align 4
  br label %29

29:                                               ; preds = %85, %27
  %30 = load i32, i32* %4, align 4
  %31 = load i32, i32* %3, align 4
  %32 = load i32, i32* %5, align 4
  %33 = add i32 %31, %32
  %34 = icmp ult i32 %30, %33
  br i1 %34, label %35, label %88

35:                                               ; preds = %29
  %36 = load i32, i32* %4, align 4
  %37 = zext i32 %36 to i64
  %38 = getelementptr inbounds [500 x i8], [500 x i8]* %2, i64 0, i64 %37
  %39 = load i8, i8* %38, align 1
  %40 = sext i8 %39 to i32
  %41 = load i32, i32* %3, align 4
  %42 = mul i32 2, %41
  %43 = load i32, i32* %5, align 4
  %44 = add i32 %42, %43
  %45 = sub i32 %44, 1
  %46 = load i32, i32* %4, align 4
  %47 = sub i32 %45, %46
  %48 = zext i32 %47 to i64
  %49 = getelementptr inbounds [500 x i8], [500 x i8]* %2, i64 0, i64 %48
  %50 = load i8, i8* %49, align 1
  %51 = sext i8 %50 to i32
  %52 = icmp ne i32 %40, %51
  br i1 %52, label %53, label %54

53:                                               ; preds = %35
  br label %88

54:                                               ; preds = %35
  %55 = load i32, i32* %4, align 4
  %56 = load i32, i32* %3, align 4
  %57 = mul i32 2, %56
  %58 = load i32, i32* %5, align 4
  %59 = add i32 %57, %58
  %60 = sub i32 %59, 1
  %61 = load i32, i32* %4, align 4
  %62 = sub i32 %60, %61
  %63 = icmp uge i32 %55, %62
  br i1 %63, label %64, label %83

64:                                               ; preds = %54
  %65 = load i32, i32* %3, align 4
  store i32 %65, i32* %6, align 4
  br label %66

66:                                               ; preds = %78, %64
  %67 = load i32, i32* %6, align 4
  %68 = load i32, i32* %3, align 4
  %69 = load i32, i32* %5, align 4
  %70 = add i32 %68, %69
  %71 = icmp ult i32 %67, %70
  br i1 %71, label %72, label %81

72:                                               ; preds = %66
  %73 = load i32, i32* %6, align 4
  %74 = zext i32 %73 to i64
  %75 = getelementptr inbounds [500 x i8], [500 x i8]* %2, i64 0, i64 %74
  %76 = load i8, i8* %75, align 1
  %77 = call dereferenceable(272) %"class.std::basic_ostream"* @_ZStlsISt11char_traitsIcEERSt13basic_ostreamIcT_ES5_c(%"class.std::basic_ostream"* dereferenceable(272) @_ZSt4cout, i8 signext %76)
  br label %78

78:                                               ; preds = %72
  %79 = load i32, i32* %6, align 4
  %80 = add i32 %79, 1
  store i32 %80, i32* %6, align 4
  br label %66

81:                                               ; preds = %66
  %82 = call dereferenceable(272) %"class.std::basic_ostream"* @_ZNSolsEPFRSoS_E(%"class.std::basic_ostream"* @_ZSt4cout, %"class.std::basic_ostream"* (%"class.std::basic_ostream"*)* @_ZSt4endlIcSt11char_traitsIcEERSt13basic_ostreamIT_T0_ES6_)
  br label %88

83:                                               ; preds = %54
  br label %84

84:                                               ; preds = %83
  br label %85

85:                                               ; preds = %84
  %86 = load i32, i32* %4, align 4
  %87 = add i32 %86, 1
  store i32 %87, i32* %4, align 4
  br label %29

88:                                               ; preds = %81, %53, %29
  br label %89

89:                                               ; preds = %88
  %90 = load i32, i32* %3, align 4
  %91 = add i32 %90, 1
  store i32 %91, i32* %3, align 4
  br label %17

92:                                               ; preds = %17
  br label %93

93:                                               ; preds = %92
  %94 = load i32, i32* %5, align 4
  %95 = add i32 %94, 1
  store i32 %95, i32* %5, align 4
  br label %9

96:                                               ; preds = %9
  ret i32 0
}

declare dso_local dereferenceable(280) %"class.std::basic_istream"* @_ZStrsIcSt11char_traitsIcEERSt13basic_istreamIT_T0_ES6_PS3_(%"class.std::basic_istream"* dereferenceable(280), i8*) #1

; Function Attrs: nounwind readonly
declare dso_local i64 @strlen(i8*) #5

declare dso_local dereferenceable(272) %"class.std::basic_ostream"* @_ZStlsISt11char_traitsIcEERSt13basic_ostreamIcT_ES5_c(%"class.std::basic_ostream"* dereferenceable(272), i8 signext) #1

declare dso_local dereferenceable(272) %"class.std::basic_ostream"* @_ZNSolsEPFRSoS_E(%"class.std::basic_ostream"*, %"class.std::basic_ostream"* (%"class.std::basic_ostream"*)*) #1

declare dso_local dereferenceable(272) %"class.std::basic_ostream"* @_ZSt4endlIcSt11char_traitsIcEERSt13basic_ostreamIT_T0_ES6_(%"class.std::basic_ostream"* dereferenceable(272)) #1

; Function Attrs: noinline uwtable
define internal void @_GLOBAL__sub_I_609.cpp() #0 section ".text.startup" {
  call void @__cxx_global_var_init()
  ret void
}


!llvm.module.flags = !{!0}
!llvm.ident = !{!1}

!0 = !{i32 1, !"wchar_size", i32 4}
!1 = !{!"clang version 10.0.0-4ubuntu1 "}
