; ModuleID = 'source-C-CXX/48/609.cpp'
source_filename = "source-C-CXX/48/609.cpp"
target datalayout = "e-m:e-p270:32:32-p271:32:32-p272:64:64-i64:64-f80:128-n8:16:32:64-S128"
target triple = "x86_64-pc-linux-gnu"

%"class.std::ios_base::Init" = type { i8 }
%"class.std::basic_istream" = type { i32 (...)**, i64, %"class.std::basic_ios" }
%"class.std::basic_ios" = type { %"class.std::ios_base", %"class.std::basic_ostream"*, i8, i8, %"class.std::basic_streambuf"*, %"class.std::ctype"*, %"class.std::num_put"*, %"class.std::num_get"* }
%"class.std::ios_base" = type { i32 (...)**, i64, i64, i32, i32, i32, %"struct.std::ios_base::_Callback_list"*, %"struct.std::ios_base::_Words", [8 x %"struct.std::ios_base::_Words"], i32, %"struct.std::ios_base::_Words"*, %"class.std::locale" }
%"struct.std::ios_base::_Callback_list" = type { %"struct.std::ios_base::_Callback_list"*, void (i32, %"class.std::ios_base"*, i32)*, i32, i32 }
%"struct.std::ios_base::_Words" = type { i8*, i64 }
%"class.std::locale" = type { %"class.std::locale::_Impl"* }
%"class.std::locale::_Impl" = type { i32, %"class.std::locale::facet"**, i64, %"class.std::locale::facet"**, i8** }
%"class.std::locale::facet" = type <{ i32 (...)**, i32, [4 x i8] }>
%"class.std::basic_ostream" = type { i32 (...)**, %"class.std::basic_ios" }
%"class.std::basic_streambuf" = type { i32 (...)**, i8*, i8*, i8*, i8*, i8*, i8*, %"class.std::locale" }
%"class.std::ctype" = type <{ %"class.std::locale::facet.base", [4 x i8], %struct.__locale_struct*, i8, [7 x i8], i32*, i32*, i16*, i8, [256 x i8], [256 x i8], i8, [6 x i8] }>
%"class.std::locale::facet.base" = type <{ i32 (...)**, i32 }>
%struct.__locale_struct = type { [13 x %struct.__locale_data*], i16*, i32*, i32*, [13 x i8*] }
%struct.__locale_data = type opaque
%"class.std::num_put" = type { %"class.std::locale::facet.base", [4 x i8] }
%"class.std::num_get" = type { %"class.std::locale::facet.base", [4 x i8] }

@_ZStL8__ioinit = internal global %"class.std::ios_base::Init" zeroinitializer, align 1
@__dso_handle = external hidden global i8
@_ZSt3cin = external global %"class.std::basic_istream", align 8
@_ZSt4cout = external global %"class.std::basic_ostream", align 8
@llvm.global_ctors = appending global [1 x { i32, void ()*, i8* }] [{ i32, void ()*, i8* } { i32 65535, void ()* @_GLOBAL__sub_I_609.cpp, i8* null }]

declare void @_ZNSt8ios_base4InitC1Ev(%"class.std::ios_base::Init"* nonnull align 1 dereferenceable(1)) unnamed_addr #0

; Function Attrs: nounwind
declare void @_ZNSt8ios_base4InitD1Ev(%"class.std::ios_base::Init"* nonnull align 1 dereferenceable(1)) unnamed_addr #1

; Function Attrs: nofree nounwind
declare i32 @__cxa_atexit(void (i8*)*, i8*, i8*) local_unnamed_addr #2

; Function Attrs: mustprogress norecurse sspstrong uwtable
define dso_local i32 @main() local_unnamed_addr #3 {
  %1 = alloca i8, align 1
  %2 = alloca [500 x i8], align 16
  %3 = getelementptr inbounds [500 x i8], [500 x i8]* %2, i64 0, i64 0
  call void @llvm.lifetime.start.p0i8(i64 500, i8* nonnull %3) #8
  call void @_ZSt17__istream_extractRSiPcl(%"class.std::basic_istream"* nonnull align 8 dereferenceable(16) @_ZSt3cin, i8* nonnull %3, i64 500)
  %4 = call i64 @strlen(i8* noundef nonnull %3) #9
  %5 = add i64 %4, 1
  %6 = icmp ugt i64 %5, 2
  br i1 %6, label %7, label %88

7:                                                ; preds = %0, %82
  %8 = phi i64 [ %84, %82 ], [ 2, %0 ]
  %9 = phi i32 [ %83, %82 ], [ 2, %0 ]
  %10 = sub nsw i64 1, %8
  %11 = call i64 @strlen(i8* noundef nonnull %3) #9
  %12 = sub i64 0, %11
  %13 = icmp eq i64 %10, %12
  br i1 %13, label %82, label %14

14:                                               ; preds = %7, %75
  %15 = phi i32 [ %81, %75 ], [ %9, %7 ]
  %16 = phi i32 [ %76, %75 ], [ 0, %7 ]
  %17 = zext i32 %16 to i64
  %18 = add i32 %16, %9
  %19 = shl i32 %16, 1
  %20 = add i32 %19, %9
  %21 = icmp ult i32 %16, %18
  br i1 %21, label %25, label %75

22:                                               ; preds = %36
  %23 = trunc i64 %38 to i32
  %24 = icmp eq i32 %15, %23
  br i1 %24, label %75, label %25, !llvm.loop !5

25:                                               ; preds = %14, %22
  %26 = phi i64 [ %38, %22 ], [ %17, %14 ]
  %27 = getelementptr inbounds [500 x i8], [500 x i8]* %2, i64 0, i64 %26
  %28 = load i8, i8* %27, align 1, !tbaa !7
  %29 = trunc i64 %26 to i32
  %30 = xor i32 %29, -1
  %31 = add i32 %20, %30
  %32 = zext i32 %31 to i64
  %33 = getelementptr inbounds [500 x i8], [500 x i8]* %2, i64 0, i64 %32
  %34 = load i8, i8* %33, align 1, !tbaa !7
  %35 = icmp eq i8 %28, %34
  br i1 %35, label %36, label %75

36:                                               ; preds = %25
  %37 = icmp ult i64 %26, %32
  %38 = add nuw nsw i64 %26, 1
  br i1 %37, label %22, label %39

39:                                               ; preds = %36, %39
  %40 = phi i64 [ %44, %39 ], [ %17, %36 ]
  %41 = getelementptr inbounds [500 x i8], [500 x i8]* %2, i64 0, i64 %40
  %42 = load i8, i8* %41, align 1, !tbaa !7
  call void @llvm.lifetime.start.p0i8(i64 1, i8* nonnull %1)
  store i8 %42, i8* %1, align 1, !tbaa !7
  %43 = call nonnull align 8 dereferenceable(8) %"class.std::basic_ostream"* @_ZSt16__ostream_insertIcSt11char_traitsIcEERSt13basic_ostreamIT_T0_ES6_PKS3_l(%"class.std::basic_ostream"* nonnull align 8 dereferenceable(8) @_ZSt4cout, i8* nonnull %1, i64 1)
  call void @llvm.lifetime.end.p0i8(i64 1, i8* nonnull %1)
  %44 = add nuw nsw i64 %40, 1
  %45 = trunc i64 %44 to i32
  %46 = icmp eq i32 %15, %45
  br i1 %46, label %47, label %39, !llvm.loop !10

47:                                               ; preds = %39
  %48 = load i8*, i8** bitcast (%"class.std::basic_ostream"* @_ZSt4cout to i8**), align 8, !tbaa !11
  %49 = getelementptr i8, i8* %48, i64 -24
  %50 = bitcast i8* %49 to i64*
  %51 = load i64, i64* %50, align 8
  %52 = add nsw i64 %51, 240
  %53 = getelementptr inbounds i8, i8* bitcast (%"class.std::basic_ostream"* @_ZSt4cout to i8*), i64 %52
  %54 = bitcast i8* %53 to %"class.std::ctype"**
  %55 = load %"class.std::ctype"*, %"class.std::ctype"** %54, align 8, !tbaa !13
  %56 = icmp eq %"class.std::ctype"* %55, null
  br i1 %56, label %57, label %58

57:                                               ; preds = %47
  call void @_ZSt16__throw_bad_castv() #10
  unreachable

58:                                               ; preds = %47
  %59 = getelementptr inbounds %"class.std::ctype", %"class.std::ctype"* %55, i64 0, i32 8
  %60 = load i8, i8* %59, align 8, !tbaa !17
  %61 = icmp eq i8 %60, 0
  br i1 %61, label %65, label %62

62:                                               ; preds = %58
  %63 = getelementptr inbounds %"class.std::ctype", %"class.std::ctype"* %55, i64 0, i32 9, i64 10
  %64 = load i8, i8* %63, align 1, !tbaa !7
  br label %71

65:                                               ; preds = %58
  call void @_ZNKSt5ctypeIcE13_M_widen_initEv(%"class.std::ctype"* nonnull align 8 dereferenceable(570) %55)
  %66 = bitcast %"class.std::ctype"* %55 to i8 (%"class.std::ctype"*, i8)***
  %67 = load i8 (%"class.std::ctype"*, i8)**, i8 (%"class.std::ctype"*, i8)*** %66, align 8, !tbaa !11
  %68 = getelementptr inbounds i8 (%"class.std::ctype"*, i8)*, i8 (%"class.std::ctype"*, i8)** %67, i64 6
  %69 = load i8 (%"class.std::ctype"*, i8)*, i8 (%"class.std::ctype"*, i8)** %68, align 8
  %70 = call signext i8 %69(%"class.std::ctype"* nonnull align 8 dereferenceable(570) %55, i8 signext 10)
  br label %71

71:                                               ; preds = %62, %65
  %72 = phi i8 [ %64, %62 ], [ %70, %65 ]
  %73 = call nonnull align 8 dereferenceable(8) %"class.std::basic_ostream"* @_ZNSo3putEc(%"class.std::basic_ostream"* nonnull align 8 dereferenceable(8) @_ZSt4cout, i8 signext %72)
  %74 = call nonnull align 8 dereferenceable(8) %"class.std::basic_ostream"* @_ZNSo5flushEv(%"class.std::basic_ostream"* nonnull align 8 dereferenceable(8) %73)
  br label %75

75:                                               ; preds = %25, %22, %14, %71
  %76 = add i32 %16, 1
  %77 = zext i32 %76 to i64
  %78 = call i64 @strlen(i8* noundef nonnull %3) #9
  %79 = add i64 %10, %78
  %80 = icmp ugt i64 %79, %77
  %81 = add i32 %15, 1
  br i1 %80, label %14, label %82, !llvm.loop !19

82:                                               ; preds = %75, %7
  %83 = add i32 %9, 1
  %84 = zext i32 %83 to i64
  %85 = call i64 @strlen(i8* noundef nonnull %3) #9
  %86 = add i64 %85, 1
  %87 = icmp ugt i64 %86, %84
  br i1 %87, label %7, label %88, !llvm.loop !20

88:                                               ; preds = %82, %0
  call void @llvm.lifetime.end.p0i8(i64 500, i8* nonnull %3) #8
  ret i32 0
}

; Function Attrs: argmemonly mustprogress nofree nosync nounwind willreturn
declare void @llvm.lifetime.start.p0i8(i64 immarg, i8* nocapture) #4

; Function Attrs: argmemonly mustprogress nofree nounwind readonly willreturn
declare i64 @strlen(i8* nocapture) local_unnamed_addr #5

; Function Attrs: argmemonly mustprogress nofree nosync nounwind willreturn
declare void @llvm.lifetime.end.p0i8(i64 immarg, i8* nocapture) #4

declare void @_ZSt17__istream_extractRSiPcl(%"class.std::basic_istream"* nonnull align 8 dereferenceable(16), i8*, i64) local_unnamed_addr #0

declare nonnull align 8 dereferenceable(8) %"class.std::basic_ostream"* @_ZSt16__ostream_insertIcSt11char_traitsIcEERSt13basic_ostreamIT_T0_ES6_PKS3_l(%"class.std::basic_ostream"* nonnull align 8 dereferenceable(8), i8*, i64) local_unnamed_addr #0

declare nonnull align 8 dereferenceable(8) %"class.std::basic_ostream"* @_ZNSo3putEc(%"class.std::basic_ostream"* nonnull align 8 dereferenceable(8), i8 signext) local_unnamed_addr #0

declare nonnull align 8 dereferenceable(8) %"class.std::basic_ostream"* @_ZNSo5flushEv(%"class.std::basic_ostream"* nonnull align 8 dereferenceable(8)) local_unnamed_addr #0

; Function Attrs: noreturn
declare void @_ZSt16__throw_bad_castv() local_unnamed_addr #6

declare void @_ZNKSt5ctypeIcE13_M_widen_initEv(%"class.std::ctype"* nonnull align 8 dereferenceable(570)) local_unnamed_addr #0

; Function Attrs: sspstrong uwtable
define internal void @_GLOBAL__sub_I_609.cpp() #7 section ".text.startup" {
  tail call void @_ZNSt8ios_base4InitC1Ev(%"class.std::ios_base::Init"* nonnull align 1 dereferenceable(1) @_ZStL8__ioinit)
  %1 = tail call i32 @__cxa_atexit(void (i8*)* bitcast (void (%"class.std::ios_base::Init"*)* @_ZNSt8ios_base4InitD1Ev to void (i8*)*), i8* getelementptr inbounds (%"class.std::ios_base::Init", %"class.std::ios_base::Init"* @_ZStL8__ioinit, i64 0, i32 0), i8* nonnull @__dso_handle) #8
  ret void
}


!llvm.module.flags = !{!0, !1, !2, !3}
!llvm.ident = !{!4}

!0 = !{i32 1, !"wchar_size", i32 4}
!1 = !{i32 7, !"PIC Level", i32 2}
!2 = !{i32 7, !"PIE Level", i32 2}
!3 = !{i32 7, !"uwtable", i32 1}
!4 = !{!"clang version 13.0.0"}
!5 = distinct !{!5, !6}
!6 = !{!"llvm.loop.mustprogress"}
!7 = !{!8, !8, i64 0}
!8 = !{!"omnipotent char", !9, i64 0}
!9 = !{!"Simple C++ TBAA"}
!10 = distinct !{!10, !6}
!11 = !{!12, !12, i64 0}
!12 = !{!"vtable pointer", !9, i64 0}
!13 = !{!14, !15, i64 240}
!14 = !{!"_ZTSSt9basic_iosIcSt11char_traitsIcEE", !15, i64 216, !8, i64 224, !16, i64 225, !15, i64 232, !15, i64 240, !15, i64 248, !15, i64 256}
!15 = !{!"any pointer", !8, i64 0}
!16 = !{!"bool", !8, i64 0}
!17 = !{!18, !8, i64 56}
!18 = !{!"_ZTSSt5ctypeIcE", !15, i64 16, !16, i64 24, !15, i64 32, !15, i64 40, !15, i64 48, !8, i64 56, !8, i64 57, !8, i64 313, !8, i64 569}
!19 = distinct !{!19, !6}
!20 = distinct !{!20, !6}
